; ModuleID = 'bench/git/original/fuzz-parse-attr-line.ll'
source_filename = "bench/git/original/fuzz-parse-attr-line.ll"
target datalayout = "e-m:e-p270:32:32-p271:32:32-p272:64:64-i64:64-i128:128-f80:128-n8:16:32:64-S128"
target triple = "x86_64-pc-linux-gnu"

@.str = private unnamed_addr constant [6 x i8] c"dummy\00", align 1
@git_attr__true = external constant [0 x i8], align 1
@git_attr__false = external constant [0 x i8], align 1

; Function Attrs: nounwind uwtable
define dso_local noundef i32 @LLVMFuzzerTestOneInput(ptr noundef readonly captures(none) %0, i64 noundef %1) local_unnamed_addr #0 {
  %3 = add i64 %1, 1
  %4 = tail call noalias ptr @malloc(i64 noundef %3) #5
  %.not = icmp eq ptr %4, null
  br i1 %.not, label %24, label %5

5:                                                ; preds = %2
  tail call void @llvm.memcpy.p0.p0.i64(ptr nonnull align 1 %4, ptr align 1 %0, i64 %1, i1 false)
  %6 = getelementptr inbounds nuw i8, ptr %4, i64 %1
  store i8 0, ptr %6, align 1, !tbaa !4
  %7 = tail call ptr @parse_attr_line(ptr noundef nonnull %4, ptr noundef nonnull @.str, i32 noundef 0, i32 noundef 0) #6
  %.not26 = icmp eq ptr %7, null
  br i1 %.not26, label %23, label %.preheader

.preheader:                                       ; preds = %5
  %8 = getelementptr inbounds nuw i8, ptr %7, i64 32
  %9 = load i64, ptr %8, align 8, !tbaa !7
  %.not28 = icmp eq i64 %9, 0
  br i1 %.not28, label %._crit_edge, label %.lr.ph

.lr.ph:                                           ; preds = %.preheader
  %10 = getelementptr i8, ptr %7, i64 48
  br label %11

11:                                               ; preds = %.lr.ph, %19
  %12 = phi i64 [ %9, %.lr.ph ], [ %20, %19 ]
  %.02327 = phi i64 [ 0, %.lr.ph ], [ %21, %19 ]
  %.idx = shl nuw nsw i64 %.02327, 4
  %13 = getelementptr i8, ptr %10, i64 %.idx
  %14 = load ptr, ptr %13, align 8, !tbaa !9
  %15 = icmp eq ptr %14, @git_attr__true
  %16 = icmp eq ptr %14, @git_attr__false
  %or.cond = or i1 %15, %16
  %17 = icmp eq ptr %14, null
  %or.cond3 = or i1 %17, %or.cond
  br i1 %or.cond3, label %19, label %18

18:                                               ; preds = %11
  tail call void @free(ptr noundef nonnull %14) #6
  %.pre = load i64, ptr %8, align 8, !tbaa !7
  br label %19

19:                                               ; preds = %11, %18
  %20 = phi i64 [ %12, %11 ], [ %.pre, %18 ]
  %21 = add nuw i64 %.02327, 1
  %22 = icmp ult i64 %21, %20
  br i1 %22, label %11, label %._crit_edge, !llvm.loop !14

._crit_edge:                                      ; preds = %19, %.preheader
  tail call void @free(ptr noundef nonnull %7) #6
  br label %23

23:                                               ; preds = %._crit_edge, %5
  tail call void @free(ptr noundef %4) #6
  br label %24

24:                                               ; preds = %2, %23
  ret i32 0
}

; Function Attrs: mustprogress nofree nounwind willreturn allockind("alloc,uninitialized") allocsize(0) memory(inaccessiblemem: readwrite)
declare noalias noundef ptr @malloc(i64 noundef) local_unnamed_addr #1

; Function Attrs: mustprogress nocallback nofree nounwind willreturn memory(argmem: readwrite)
declare void @llvm.memcpy.p0.p0.i64(ptr noalias writeonly captures(none), ptr noalias readonly captures(none), i64, i1 immarg) #2

declare ptr @parse_attr_line(ptr noundef, ptr noundef, i32 noundef, i32 noundef) local_unnamed_addr #3

; Function Attrs: mustprogress nounwind willreturn allockind("free") memory(argmem: readwrite, inaccessiblemem: readwrite)
declare void @free(ptr allocptr noundef captures(none)) local_unnamed_addr #4


!llvm.module.flags = !{!0, !1, !2, !3}

!0 = !{i32 1, !"wchar_size", i32 4}
!1 = !{i32 8, !"PIC Level", i32 2}
!2 = !{i32 7, !"PIE Level", i32 2}
!3 = !{i32 7, !"uwtable", i32 2}
!4 = !{!5, !5, i64 0}
!5 = !{!"omnipotent char", !6, i64 0}
!6 = !{!"Simple C/C++ TBAA"}
!7 = !{!8, !8, i64 0}
!8 = !{!"long", !5, i64 0}
!9 = !{!10, !13, i64 8}
!10 = !{!"attr_state", !11, i64 0, !13, i64 8}
!11 = !{!"p1 _ZTS8git_attr", !12, i64 0}
!12 = !{!"any pointer", !5, i64 0}
!13 = !{!"p1 omnipotent char", !12, i64 0}
!14 = distinct !{!14, !15}
!15 = !{!"llvm.loop.mustprogress"}
